target datalayout = "e-m:e-p270:32:32-p271:32:32-p272:64:64-i64:64-i128:128-f80:128-n8:16:32:64-S128"
target triple = "x86_64-pc-linux-gnu"

%struct.Vec_Int_t_ = type { i32, i32, ptr }

; Function Attrs: inlinehint nounwind uwtable
define internal void @Vec_IntWriteEntry(ptr noundef %0, i32 noundef %1, i32 noundef %2) #1 {
  %4 = alloca ptr, align 8
  %5 = alloca i32, align 4
  %6 = alloca i32, align 4
  store ptr %0, ptr %4, align 8, !tbaa !31
  store i32 %1, ptr %5, align 4, !tbaa !33
  store i32 %2, ptr %6, align 4, !tbaa !33
  %7 = load i32, ptr %6, align 4, !tbaa !33
  %8 = load ptr, ptr %4, align 8, !tbaa !31
  %9 = getelementptr inbounds nuw %struct.Vec_Int_t_, ptr %8, i32 0, i32 2
  %10 = load ptr, ptr %9, align 8, !tbaa !32
  %11 = load i32, ptr %5, align 4, !tbaa !33
  %12 = sext i32 %11 to i64
  %13 = getelementptr inbounds i32, ptr %10, i64 %12
  store i32 %7, ptr %13, align 4, !tbaa !33
  ret void
}

; Function Attrs: inlinehint nounwind uwtable
define internal i32 @Vec_IntEntry(ptr noundef %0, i32 noundef %1) #1 {
  %3 = alloca ptr, align 8
  %4 = alloca i32, align 4
  store ptr %0, ptr %3, align 8, !tbaa !31
  store i32 %1, ptr %4, align 4, !tbaa !33
  %5 = load ptr, ptr %3, align 8, !tbaa !31
  %6 = getelementptr inbounds nuw %struct.Vec_Int_t_, ptr %5, i32 0, i32 2
  %7 = load ptr, ptr %6, align 8, !tbaa !32
  %8 = load i32, ptr %4, align 4, !tbaa !33
  %9 = sext i32 %8 to i64
  %10 = getelementptr inbounds i32, ptr %7, i64 %9
  %11 = load i32, ptr %10, align 4, !tbaa !33
  ret i32 %11
}

; Function Attrs: nounwind uwtable
define void @Gia_ManOrigIdsRemapPairsInsert(ptr noundef %0, i32 noundef %1, i32 noundef %2) #0 {
  %4 = alloca ptr, align 8
  %5 = alloca i32, align 4
  %6 = alloca i32, align 4
  %7 = alloca i32, align 4
  %8 = alloca i32, align 4
  store ptr %0, ptr %4, align 8, !tbaa !31
  store i32 %1, ptr %5, align 4, !tbaa !33
  store i32 %2, ptr %6, align 4, !tbaa !33
  call void @llvm.lifetime.start.p0(i64 4, ptr %7) #12
  %9 = load i32, ptr %5, align 4, !tbaa !33
  %10 = load i32, ptr %6, align 4, !tbaa !33
  %11 = icmp slt i32 %9, %10
  br i1 %11, label %12, label %14

12:                                               ; preds = %3
  %13 = load i32, ptr %5, align 4, !tbaa !33
  br label %16

14:                                               ; preds = %3
  %15 = load i32, ptr %6, align 4, !tbaa !33
  br label %16

16:                                               ; preds = %14, %12
  %17 = phi i32 [ %13, %12 ], [ %15, %14 ]
  store i32 %17, ptr %7, align 4, !tbaa !33
  call void @llvm.lifetime.start.p0(i64 4, ptr %8) #12
  %18 = load i32, ptr %5, align 4, !tbaa !33
  %19 = load i32, ptr %6, align 4, !tbaa !33
  %20 = icmp slt i32 %18, %19
  br i1 %20, label %21, label %23

21:                                               ; preds = %16
  %22 = load i32, ptr %6, align 4, !tbaa !33
  br label %25

23:                                               ; preds = %16
  %24 = load i32, ptr %5, align 4, !tbaa !33
  br label %25

25:                                               ; preds = %23, %21
  %26 = phi i32 [ %22, %21 ], [ %24, %23 ]
  store i32 %26, ptr %8, align 4, !tbaa !33
  %27 = load ptr, ptr %4, align 8, !tbaa !31
  %28 = load i32, ptr %8, align 4, !tbaa !33
  %29 = call i32 @Vec_IntEntry(ptr noundef %27, i32 noundef %28)
  %30 = icmp eq i32 %29, -1
  br i1 %30, label %31, label %35

31:                                               ; preds = %25
  %32 = load ptr, ptr %4, align 8, !tbaa !31
  %33 = load i32, ptr %8, align 4, !tbaa !33
  %34 = load i32, ptr %7, align 4, !tbaa !33
  call void @Vec_IntWriteEntry(ptr noundef %32, i32 noundef %33, i32 noundef %34)
  br label %41

35:                                               ; preds = %25
  %36 = load ptr, ptr %4, align 8, !tbaa !31
  %37 = load i32, ptr %7, align 4, !tbaa !33
  %38 = load ptr, ptr %4, align 8, !tbaa !31
  %39 = load i32, ptr %8, align 4, !tbaa !33
  %40 = call i32 @Vec_IntEntry(ptr noundef %38, i32 noundef %39)
  call void @Gia_ManOrigIdsRemapPairsInsert(ptr noundef %36, i32 noundef %37, i32 noundef %40)
  br label %41

41:                                               ; preds = %35, %31
  call void @llvm.lifetime.end.p0(i64 4, ptr %8) #12
  call void @llvm.lifetime.end.p0(i64 4, ptr %7) #12
  ret void
}