; Function Attrs: nofree norecurse nosync nounwind memory(readwrite, inaccessiblemem: none) uwtable
define void @Gia_ManOrigIdsRemapPairsInsert(ptr noundef readonly captures(none) %0, i32 noundef %1, i32 noundef %2) local_unnamed_addr #3 {
  %4 = getelementptr i8, ptr %0, i64 8
  %.val17 = load ptr, ptr %4, align 8, !tbaa !8
  br label %tailrecurse

tailrecurse:                                      ; preds = %tailrecurse, %3
  %.tr18 = phi i32 [ %1, %3 ], [ %5, %tailrecurse ]
  %.tr19 = phi i32 [ %2, %3 ], [ %9, %tailrecurse ]
  %5 = tail call i32 @llvm.smin.i32(i32 %.tr18, i32 %.tr19)
  %6 = tail call i32 @llvm.smax.i32(i32 %.tr18, i32 %.tr19)
  %7 = sext i32 %6 to i64
  %8 = getelementptr inbounds i32, ptr %.val17, i64 %7
  %9 = load i32, ptr %8, align 4, !tbaa !32
  %10 = icmp eq i32 %9, -1
  br i1 %10, label %11, label %tailrecurse

11:                                               ; preds = %tailrecurse
  %12 = getelementptr inbounds i32, ptr %.val17, i64 %7
  store i32 %5, ptr %12, align 4, !tbaa !32
  ret void
}